; Function Attrs: nounwind uwtable
define noalias ptr @l_Std_Sat_AIG_RefVec_zip___rarg(ptr noundef readnone captures(none) %0, ptr noundef readnone captures(none) %1, ptr noundef %2, ptr noundef %3, ptr noundef readonly captures(none) %4, ptr noundef %5, ptr noundef readnone captures(none) %6, ptr noundef readnone captures(none) %7) local_unnamed_addr #0 {
  %9 = ptrtoint ptr %2 to i64
  %10 = and i64 %9, 1
  %.not.i = icmp eq i64 %10, 0
  br i1 %.not.i, label %11, label %lean_mk_empty_array_with_capacity.exit

11:                                               ; preds = %8
  tail call void @lean_internal_panic_out_of_memory() #4
  unreachable

lean_mk_empty_array_with_capacity.exit:           ; preds = %8
  %12 = lshr i64 %9, 1
  %13 = shl i64 %12, 3
  %14 = add i64 %13, 24
  %15 = tail call ptr @lean_alloc_object(i64 noundef %14) #3
  store i32 1, ptr %15, align 4, !tbaa !5
  %16 = getelementptr inbounds nuw i8, ptr %15, i64 4
  %17 = load i32, ptr %16, align 4
  %18 = and i32 %17, 65535
  %19 = or disjoint i32 %18, -167772160
  store i32 %19, ptr %16, align 4
  %20 = getelementptr inbounds nuw i8, ptr %15, i64 8
  store i64 0, ptr %20, align 8, !tbaa !13
  %21 = getelementptr inbounds nuw i8, ptr %15, i64 16
  store i64 %12, ptr %21, align 8, !tbaa !13
  %22 = getelementptr inbounds nuw i8, ptr %4, i64 8
  %23 = load ptr, ptr %22, align 8, !tbaa !11
  %24 = getelementptr inbounds nuw i8, ptr %4, i64 16
  %25 = load ptr, ptr %24, align 8, !tbaa !11
  %26 = tail call ptr @l_Std_Sat_AIG_RefVec_zip_go___rarg(ptr poison, ptr poison, ptr noundef %2, ptr noundef %3, ptr noundef nonnull inttoptr (i64 1 to ptr), ptr noundef nonnull %15, ptr nonnull poison, ptr noundef %23, ptr noundef %25, ptr noundef %5, ptr nonnull poison, ptr nonnull poison)
  ret ptr %26
}